target datalayout = "e-m:e-p270:32:32-p271:32:32-p272:64:64-i64:64-i128:128-f80:128-n8:16:32:64-S128"
target triple = "x86_64-unknown-linux-gnu"

%struct.__sigset_t = type { [16 x i64] }
%struct.CPUState = type { %struct.DeviceState, ptr, i32, i32, ptr, i32, i8, i8, ptr, i8, i8, i8, i8, i8, i8, i8, i8, i32, i32, i32, i32, i64, i64, i64, [1 x %struct.__jmp_buf_tag], %struct.QemuMutex, %struct.anon, ptr, i32, ptr, ptr, ptr, ptr, i32, i32, %union.anon, %union.anon.0, %union.anon.1, ptr, ptr, i64, i32, ptr, ptr, ptr, i32, i64, i32, %struct.QemuLockCnt, [1 x i64], ptr, i32, i32, i32, i32, i32, ptr, i8, i8, i64, i8, i8, ptr, [8 x i8], [0 x i8], %struct.CPUNegativeOffsetState }
%struct.DeviceState = type { %struct.Object, ptr, ptr, i8, i8, i64, ptr, i32, i8, ptr, %struct.NamedGPIOListHead, %struct.NamedClockListHead, %struct.BusStateHead, i32, i32, i32, %struct.ResettableState, ptr, %struct.MemReentrancyGuard }
%struct.Object = type { ptr, ptr, ptr, i32, ptr }
%struct.NamedGPIOListHead = type { ptr }
%struct.NamedClockListHead = type { ptr }
%struct.BusStateHead = type { ptr }
%struct.ResettableState = type { i32, i8, i8 }
%struct.MemReentrancyGuard = type { i8 }
%struct.__jmp_buf_tag = type { [8 x i64], i32, %struct.__sigset_t }
%struct.QemuMutex = type { %union.pthread_mutex_t, i8 }
%union.pthread_mutex_t = type { %struct.__pthread_mutex_s }
%struct.__pthread_mutex_s = type { i32, i32, i32, i32, i32, i16, i16, %struct.__pthread_internal_list }
%struct.__pthread_internal_list = type { ptr, ptr }
%struct.anon = type { ptr, ptr }
%union.anon = type { %struct.QTailQLink }
%struct.QTailQLink = type { ptr, ptr }
%union.anon.0 = type { %struct.QTailQLink }
%union.anon.1 = type { %struct.QTailQLink }
%struct.QemuLockCnt = type { i32 }
%struct.CPUNegativeOffsetState = type { %struct.CPUTLB, %union.IcountDecr, i8, [11 x i8] }
%struct.CPUTLB = type { %struct.CPUTLBCommon, [16 x %struct.CPUTLBDesc], [16 x %struct.CPUTLBDescFast] }
%struct.CPUTLBCommon = type { %struct.QemuSpin, i16, i64, i64, i64 }
%struct.QemuSpin = type { i32 }
%struct.CPUTLBDesc = type { i64, i64, i64, i64, i64, i64, [8 x %union.CPUTLBEntry], [8 x %struct.CPUTLBEntryFull], ptr }
%union.CPUTLBEntry = type { %struct.anon.2 }
%struct.anon.2 = type { i64, i64, i64, i64 }
%struct.CPUTLBEntryFull = type { i64, i64, %struct.MemTxAttrs, i8, i8, [3 x i8], %union.anon.3 }
%struct.MemTxAttrs = type { i32 }
%union.anon.3 = type { %struct.anon.4 }
%struct.anon.4 = type { i8, i8, i8 }
%struct.CPUTLBDescFast = type { i64, ptr }
%union.IcountDecr = type { i32 }
%struct.TaskState = type { i32, i32, i64, i64, i64, i64, i32, ptr, ptr, %struct.emulated_sigtable, [64 x %struct.emulated_sigtable], %struct.__sigset_t, %struct.__sigset_t, i32, i32, %struct.target_sigaltstack, i64 }
%struct.emulated_sigtable = type { i32, %struct.target_siginfo }
%struct.target_siginfo = type { i32, i32, i32, %union.anon.6 }
%union.anon.6 = type { %struct.anon.10, [80 x i8] }
%struct.anon.10 = type { i32, i32, i32, i64, i64 }
%struct.target_sigaltstack = type { i64, i32, i64 }

@thread_cpu = external thread_local global ptr, align 8
@.str = private unnamed_addr constant [28 x i8] c"../qemu/linux-user/signal.c\00", align 1
@__func__.block_signals = private unnamed_addr constant [14 x i8] c"block_signals\00", align 1
@__func__.do_sigprocmask = private unnamed_addr constant [15 x i8] c"do_sigprocmask\00", align 1

; Function Attrs: nounwind sspstrong uwtable
define dso_local i32 @block_signals() #0 {
entry:
  %ts = alloca ptr, align 8
  %set = alloca %struct.__sigset_t, align 8
  %tmp = alloca i32, align 4
  %tmp2 = alloca i32, align 4
  %.atomictmp = alloca i32, align 4
  %atomic-temp = alloca i32, align 4
  %0 = call align 8 ptr @llvm.threadlocal.address.p0(ptr align 8 @thread_cpu)
  %1 = load ptr, ptr %0, align 8
  %opaque = getelementptr inbounds %struct.CPUState, ptr %1, i32 0, i32 39
  %2 = load ptr, ptr %opaque, align 16
  store ptr %2, ptr %ts, align 8
  %call = call i32 @sigfillset(ptr noundef %set) #9
  %call1 = call i32 @sigprocmask(i32 noundef 2, ptr noundef %set, ptr noundef null) #9
  br label %while.cond

while.cond:                                       ; preds = %do.end, %entry
  br i1 false, label %while.body, label %while.end

while.body:                                       ; preds = %while.cond
  br label %do.body

do.body:                                          ; preds = %while.body
  call void @g_assertion_message_expr(ptr noundef null, ptr noundef @.str, i32 noundef 185, ptr noundef @__func__.block_signals, ptr noundef null) #10
  unreachable

do.end:                                           ; No predecessors!
  br label %while.cond

while.end:                                        ; preds = %while.cond
  %3 = load ptr, ptr %ts, align 8
  %signal_pending = getelementptr inbounds %struct.TaskState, ptr %3, i32 0, i32 14
  store i32 1, ptr %.atomictmp, align 4
  %4 = load i32, ptr %.atomictmp, align 4
  %5 = atomicrmw xchg ptr %signal_pending, i32 %4 seq_cst, align 4
  store i32 %5, ptr %atomic-temp, align 4
  %6 = load i32, ptr %atomic-temp, align 4
  store i32 %6, ptr %tmp2, align 4
  %7 = load i32, ptr %tmp2, align 4
  store i32 %7, ptr %tmp, align 4
  %8 = load i32, ptr %tmp, align 4
  ret i32 %8
}

; Function Attrs: nounwind sspstrong uwtable
define dso_local i32 @do_sigprocmask(i32 noundef %how, ptr noundef %set, ptr noundef %oldset) #0 {
entry:
  %retval = alloca i32, align 4
  %how.addr = alloca i32, align 4
  %set.addr = alloca ptr, align 8
  %oldset.addr = alloca ptr, align 8
  %ts = alloca ptr, align 8
  %i = alloca i32, align 4
  store i32 %how, ptr %how.addr, align 4
  store ptr %set, ptr %set.addr, align 8
  store ptr %oldset, ptr %oldset.addr, align 8
  %0 = call align 8 ptr @llvm.threadlocal.address.p0(ptr align 8 @thread_cpu)
  %1 = load ptr, ptr %0, align 8
  %opaque = getelementptr inbounds %struct.CPUState, ptr %1, i32 0, i32 39
  %2 = load ptr, ptr %opaque, align 16
  store ptr %2, ptr %ts, align 8
  %3 = load ptr, ptr %oldset.addr, align 8
  %tobool = icmp ne ptr %3, null
  br i1 %tobool, label %if.then, label %if.end

if.then:                                          ; preds = %entry
  %4 = load ptr, ptr %oldset.addr, align 8
  %5 = load ptr, ptr %ts, align 8
  %signal_mask = getelementptr inbounds %struct.TaskState, ptr %5, i32 0, i32 11
  call void @llvm.memcpy.p0.p0.i64(ptr align 8 %4, ptr align 8 %signal_mask, i64 128, i1 false)
  br label %if.end

if.end:                                           ; preds = %if.then, %entry
  %6 = load ptr, ptr %set.addr, align 8
  %tobool1 = icmp ne ptr %6, null
  br i1 %tobool1, label %if.then2, label %if.end22

if.then2:                                         ; preds = %if.end
  %call = call i32 @block_signals()
  %tobool3 = icmp ne i32 %call, 0
  br i1 %tobool3, label %if.then4, label %if.end5

if.then4:                                         ; preds = %if.then2
  store i32 -512, ptr %retval, align 4
  br label %return

if.end5:                                          ; preds = %if.then2
  %7 = load i32, ptr %how.addr, align 4
  switch i32 %7, label %sw.default [
    i32 0, label %sw.bb
    i32 1, label %sw.bb9
    i32 2, label %sw.bb16
  ]

sw.bb:                                            ; preds = %if.end5
  %8 = load ptr, ptr %ts, align 8
  %signal_mask6 = getelementptr inbounds %struct.TaskState, ptr %8, i32 0, i32 11
  %9 = load ptr, ptr %ts, align 8
  %signal_mask7 = getelementptr inbounds %struct.TaskState, ptr %9, i32 0, i32 11
  %10 = load ptr, ptr %set.addr, align 8
  %call8 = call i32 @sigorset(ptr noundef %signal_mask6, ptr noundef %signal_mask7, ptr noundef %10) #9
  br label %sw.epilog

sw.bb9:                                           ; preds = %if.end5
  store i32 1, ptr %i, align 4
  br label %for.cond

for.cond:                                         ; preds = %for.inc, %sw.bb9
  %11 = load i32, ptr %i, align 4
  %cmp = icmp sle i32 %11, 65
  br i1 %cmp, label %for.body, label %for.end

for.body:                                         ; preds = %for.cond
  %12 = load ptr, ptr %set.addr, align 8
  %13 = load i32, ptr %i, align 4
  %call10 = call i32 @sigismember(ptr noundef %12, i32 noundef %13) #9
  %tobool11 = icmp ne i32 %call10, 0
  br i1 %tobool11, label %if.then12, label %if.end15

if.then12:                                        ; preds = %for.body
  %14 = load ptr, ptr %ts, align 8
  %signal_mask13 = getelementptr inbounds %struct.TaskState, ptr %14, i32 0, i32 11
  %15 = load i32, ptr %i, align 4
  %call14 = call i32 @sigdelset(ptr noundef %signal_mask13, i32 noundef %15) #9
  br label %if.end15

if.end15:                                         ; preds = %if.then12, %for.body
  br label %for.inc

for.inc:                                          ; preds = %if.end15
  %16 = load i32, ptr %i, align 4
  %inc = add i32 %16, 1
  store i32 %inc, ptr %i, align 4
  br label %for.cond, !llvm.loop !11

for.end:                                          ; preds = %for.cond
  br label %sw.epilog

sw.bb16:                                          ; preds = %if.end5
  %17 = load ptr, ptr %ts, align 8
  %signal_mask17 = getelementptr inbounds %struct.TaskState, ptr %17, i32 0, i32 11
  %18 = load ptr, ptr %set.addr, align 8
  call void @llvm.memcpy.p0.p0.i64(ptr align 8 %signal_mask17, ptr align 8 %18, i64 128, i1 false)
  br label %sw.epilog

sw.default:                                       ; preds = %if.end5
  br label %do.body

do.body:                                          ; preds = %sw.default
  call void @g_assertion_message_expr(ptr noundef null, ptr noundef @.str, i32 noundef 225, ptr noundef @__func__.do_sigprocmask, ptr noundef null) #10
  unreachable

do.end:                                           ; No predecessors!
  br label %sw.epilog

sw.epilog:                                        ; preds = %do.end, %sw.bb16, %for.end, %sw.bb
  %19 = load ptr, ptr %ts, align 8
  %signal_mask18 = getelementptr inbounds %struct.TaskState, ptr %19, i32 0, i32 11
  %call19 = call i32 @sigdelset(ptr noundef %signal_mask18, i32 noundef 9) #9
  %20 = load ptr, ptr %ts, align 8
  %signal_mask20 = getelementptr inbounds %struct.TaskState, ptr %20, i32 0, i32 11
  %call21 = call i32 @sigdelset(ptr noundef %signal_mask20, i32 noundef 19) #9
  br label %if.end22

if.end22:                                         ; preds = %sw.epilog, %if.end
  store i32 0, ptr %retval, align 4
  br label %return

return:                                           ; preds = %if.end22, %if.then4
  %21 = load i32, ptr %retval, align 4
  ret i32 %21
}