; Function Attrs: nounwind sspstrong uwtable
define dso_local range(i32 -512, 1) i32 @do_sigprocmask(i32 noundef %how, ptr noundef %set, ptr noundef writeonly %oldset) local_unnamed_addr #1 {
entry:
  %set.i = alloca %struct.__sigset_t, align 8
  %0 = tail call align 8 ptr @llvm.threadlocal.address.p0(ptr align 8 @thread_cpu)
  %1 = load ptr, ptr %0, align 8
  %opaque = getelementptr inbounds nuw i8, ptr %1, i64 624
  %2 = load ptr, ptr %opaque, align 16
  %tobool.not = icmp eq ptr %oldset, null
  br i1 %tobool.not, label %if.end, label %if.then

if.then:                                          ; preds = %entry
  %signal_mask = getelementptr inbounds nuw i8, ptr %2, i64 8904
  tail call void @llvm.memcpy.p0.p0.i64(ptr noundef nonnull align 8 dereferenceable(128) %oldset, ptr noundef nonnull align 8 dereferenceable(128) %signal_mask, i64 128, i1 false)
  br label %if.end

if.end:                                           ; preds = %if.then, %entry
  %tobool1.not = icmp eq ptr %set, null
  br i1 %tobool1.not, label %return, label %if.then2

if.then2:                                         ; preds = %if.end
  call void @llvm.lifetime.start.p0(i64 128, ptr nonnull %set.i)
  %3 = load ptr, ptr %0, align 8
  %opaque.i = getelementptr inbounds nuw i8, ptr %3, i64 624
  %4 = load ptr, ptr %opaque.i, align 16
  %call.i = call i32 @sigfillset(ptr noundef nonnull %set.i) #16
  %call1.i = call i32 @sigprocmask(i32 noundef 2, ptr noundef nonnull %set.i, ptr noundef null) #16
  %signal_pending.i = getelementptr inbounds nuw i8, ptr %4, i64 9164
  %5 = atomicrmw xchg ptr %signal_pending.i, i32 1 seq_cst, align 4
  call void @llvm.lifetime.end.p0(i64 128, ptr nonnull %set.i)
  %tobool3.not = icmp eq i32 %5, 0
  br i1 %tobool3.not, label %if.end5, label %return

if.end5:                                          ; preds = %if.then2
  switch i32 %how, label %do.body [
    i32 0, label %sw.bb
    i32 1, label %for.cond.preheader
    i32 2, label %sw.bb16
  ]

for.cond.preheader:                               ; preds = %if.end5
  %signal_mask13 = getelementptr inbounds nuw i8, ptr %2, i64 8904
  br label %for.body

sw.bb:                                            ; preds = %if.end5
  %signal_mask6 = getelementptr inbounds nuw i8, ptr %2, i64 8904
  %call8 = call i32 @sigorset(ptr noundef nonnull %signal_mask6, ptr noundef nonnull %signal_mask6, ptr noundef nonnull %set) #16
  br label %sw.epilog

for.body:                                         ; preds = %for.cond.preheader, %for.inc
  %i.014 = phi i32 [ 1, %for.cond.preheader ], [ %inc, %for.inc ]
  %call10 = call i32 @sigismember(ptr noundef nonnull %set, i32 noundef %i.014) #16
  %tobool11.not = icmp eq i32 %call10, 0
  br i1 %tobool11.not, label %for.inc, label %if.then12

if.then12:                                        ; preds = %for.body
  %call14 = call i32 @sigdelset(ptr noundef nonnull %signal_mask13, i32 noundef %i.014) #16
  br label %for.inc

for.inc:                                          ; preds = %for.body, %if.then12
  %inc = add nuw nsw i32 %i.014, 1
  %exitcond.not = icmp eq i32 %inc, 66
  br i1 %exitcond.not, label %sw.epilog, label %for.body, !llvm.loop !8

sw.bb16:                                          ; preds = %if.end5
  %signal_mask17 = getelementptr inbounds nuw i8, ptr %2, i64 8904
  call void @llvm.memcpy.p0.p0.i64(ptr noundef nonnull align 8 dereferenceable(128) %signal_mask17, ptr noundef nonnull align 8 dereferenceable(128) %set, i64 128, i1 false)
  br label %sw.epilog

do.body:                                          ; preds = %if.end5
  call void @g_assertion_message_expr(ptr noundef null, ptr noundef nonnull @.str, i32 noundef 225, ptr noundef nonnull @__func__.do_sigprocmask, ptr noundef null) #17
  unreachable

sw.epilog:                                        ; preds = %for.inc, %sw.bb16, %sw.bb
  %signal_mask18 = getelementptr inbounds nuw i8, ptr %2, i64 8904
  %call19 = call i32 @sigdelset(ptr noundef nonnull %signal_mask18, i32 noundef 9) #16
  %call21 = call i32 @sigdelset(ptr noundef nonnull %signal_mask18, i32 noundef 19) #16
  br label %return

return:                                           ; preds = %if.end, %sw.epilog, %if.then2
  %retval.0 = phi i32 [ -512, %if.then2 ], [ 0, %sw.epilog ], [ 0, %if.end ]
  ret i32 %retval.0
}